target datalayout = "e-m:e-p270:32:32-p271:32:32-p272:64:64-i64:64-i128:128-f80:128-n8:16:32:64-S128"
target triple = "x86_64-pc-linux-gnu"

@hf_Tango_AttributeConfig_3_name = internal global i32 0, align 4
@hf_Tango_AttributeConfig_3_writable = internal global i32 0, align 4
@hf_Tango_AttributeConfig_3_data_format = internal global i32 0, align 4
@hf_Tango_AttributeConfig_3_data_type = internal global i32 0, align 4
@hf_Tango_AttributeConfig_3_max_dim_x = internal global i32 0, align 4
@hf_Tango_AttributeConfig_3_max_dim_y = internal global i32 0, align 4
@hf_Tango_AttributeConfig_3_description = internal global i32 0, align 4
@hf_Tango_AttributeConfig_3_label = internal global i32 0, align 4
@hf_Tango_AttributeConfig_3_unit = internal global i32 0, align 4
@hf_Tango_AttributeConfig_3_standard_unit = internal global i32 0, align 4
@hf_Tango_AttributeConfig_3_display_unit = internal global i32 0, align 4
@hf_Tango_AttributeConfig_3_format = internal global i32 0, align 4
@hf_Tango_AttributeConfig_3_min_value = internal global i32 0, align 4
@hf_Tango_AttributeConfig_3_max_value = internal global i32 0, align 4
@hf_Tango_AttributeConfig_3_writable_attr_name = internal global i32 0, align 4
@hf_Tango_AttributeConfig_3_level = internal global i32 0, align 4
@hf_Tango_AttributeConfig_3_extensions_loop = internal global i32 0, align 4
@hf_Tango_AttributeConfig_3_extensions = internal global i32 0, align 4
@hf_Tango_AttributeConfig_3_sys_extensions_loop = internal global i32 0, align 4
@hf_Tango_AttributeConfig_3_sys_extensions = internal global i32 0, align 4
@ett_giop_struct = internal global i32 0, align 4
@ett_giop_sequence = internal global i32 0, align 4
@boundary = internal global i32 12, align 4
@.str.822 = private unnamed_addr constant [28 x i8] c"struct Tango_AttributeAlarm\00", align 1
@.str.823 = private unnamed_addr constant [29 x i8] c"struct Tango_EventProperties\00", align 1
@.str.839 = private unnamed_addr constant [44 x i8] c"sequence Tango_AttributeConfig_3_extensions\00", align 1
@.str.840 = private unnamed_addr constant [48 x i8] c"sequence Tango_AttributeConfig_3_sys_extensions\00", align 1

; Function Attrs: null_pointer_is_valid sspstrong uwtable
define internal void @decode_Tango_AttributeConfig_3_st(ptr noundef %0, ptr noundef %1, ptr noundef %2, ptr noundef %3, ptr noundef %4, ptr noundef %5, ptr noundef %6, i1 noundef zeroext %7) #0 {
  %9 = alloca ptr, align 8
  %10 = alloca ptr, align 8
  %11 = alloca ptr, align 8
  %12 = alloca ptr, align 8
  %13 = alloca ptr, align 8
  %14 = alloca ptr, align 8
  %15 = alloca ptr, align 8
  %16 = alloca i8, align 1
  %17 = alloca i32, align 4
  %18 = alloca i32, align 4
  %19 = alloca i32, align 4
  %20 = alloca i32, align 4
  %21 = alloca i32, align 4
  %22 = alloca ptr, align 8
  %23 = alloca ptr, align 8
  %24 = alloca ptr, align 8
  %25 = alloca ptr, align 8
  store ptr %0, ptr %9, align 8
  store ptr %1, ptr %10, align 8
  store ptr %2, ptr %11, align 8
  store ptr %3, ptr %12, align 8
  store ptr %4, ptr %13, align 8
  store ptr %5, ptr %14, align 8
  store ptr %6, ptr %15, align 8
  %26 = zext i1 %7 to i8
  store i8 %26, ptr %16, align 1
  call void @llvm.lifetime.start.p0(i64 4, ptr %17) #6
  call void @llvm.lifetime.start.p0(i64 4, ptr %18) #6
  call void @llvm.lifetime.start.p0(i64 4, ptr %19) #6
  call void @llvm.lifetime.start.p0(i64 4, ptr %20) #6
  call void @llvm.lifetime.start.p0(i64 4, ptr %21) #6
  %27 = load ptr, ptr %11, align 8
  %28 = load ptr, ptr %9, align 8
  %29 = load ptr, ptr %13, align 8
  %30 = load i8, ptr %16, align 1, !range !6, !noundef !7
  %31 = trunc i8 %30 to i1
  %32 = load i32, ptr @boundary, align 4
  %33 = load i32, ptr @hf_Tango_AttributeConfig_3_name, align 4
  call void @giop_add_CDR_string(ptr noundef %27, ptr noundef %28, ptr noundef %29, i1 noundef zeroext %31, i32 noundef %32, i32 noundef %33)
  %34 = load ptr, ptr %9, align 8
  %35 = load ptr, ptr %13, align 8
  %36 = load i8, ptr %16, align 1, !range !6, !noundef !7
  %37 = trunc i8 %36 to i1
  %38 = load i32, ptr @boundary, align 4
  %39 = call i32 @get_CDR_enum(ptr noundef %34, ptr noundef %35, i1 noundef zeroext %37, i32 noundef %38)
  store i32 %39, ptr %17, align 4
  %40 = load ptr, ptr %11, align 8
  %41 = load i32, ptr @hf_Tango_AttributeConfig_3_writable, align 4
  %42 = load ptr, ptr %9, align 8
  %43 = load ptr, ptr %13, align 8
  %44 = load i32, ptr %43, align 4
  %45 = sub i32 %44, 4
  %46 = load i32, ptr %17, align 4
  %47 = call ptr @proto_tree_add_uint(ptr noundef %40, i32 noundef %41, ptr noundef %42, i32 noundef %45, i32 noundef 4, i32 noundef %46)
  %48 = load ptr, ptr %9, align 8
  %49 = load ptr, ptr %13, align 8
  %50 = load i8, ptr %16, align 1, !range !6, !noundef !7
  %51 = trunc i8 %50 to i1
  %52 = load i32, ptr @boundary, align 4
  %53 = call i32 @get_CDR_enum(ptr noundef %48, ptr noundef %49, i1 noundef zeroext %51, i32 noundef %52)
  store i32 %53, ptr %17, align 4
  %54 = load ptr, ptr %11, align 8
  %55 = load i32, ptr @hf_Tango_AttributeConfig_3_data_format, align 4
  %56 = load ptr, ptr %9, align 8
  %57 = load ptr, ptr %13, align 8
  %58 = load i32, ptr %57, align 4
  %59 = sub i32 %58, 4
  %60 = load i32, ptr %17, align 4
  %61 = call ptr @proto_tree_add_uint(ptr noundef %54, i32 noundef %55, ptr noundef %56, i32 noundef %59, i32 noundef 4, i32 noundef %60)
  %62 = load ptr, ptr %11, align 8
  %63 = load i32, ptr @hf_Tango_AttributeConfig_3_data_type, align 4
  %64 = load ptr, ptr %9, align 8
  %65 = load ptr, ptr %13, align 8
  %66 = load i32, ptr %65, align 4
  %67 = sub i32 %66, 4
  %68 = load ptr, ptr %9, align 8
  %69 = load ptr, ptr %13, align 8
  %70 = load i8, ptr %16, align 1, !range !6, !noundef !7
  %71 = trunc i8 %70 to i1
  %72 = load i32, ptr @boundary, align 4
  %73 = call i32 @get_CDR_long(ptr noundef %68, ptr noundef %69, i1 noundef zeroext %71, i32 noundef %72)
  %74 = call ptr @proto_tree_add_int(ptr noundef %62, i32 noundef %63, ptr noundef %64, i32 noundef %67, i32 noundef 4, i32 noundef %73)
  %75 = load ptr, ptr %11, align 8
  %76 = load i32, ptr @hf_Tango_AttributeConfig_3_max_dim_x, align 4
  %77 = load ptr, ptr %9, align 8
  %78 = load ptr, ptr %13, align 8
  %79 = load i32, ptr %78, align 4
  %80 = sub i32 %79, 4
  %81 = load ptr, ptr %9, align 8
  %82 = load ptr, ptr %13, align 8
  %83 = load i8, ptr %16, align 1, !range !6, !noundef !7
  %84 = trunc i8 %83 to i1
  %85 = load i32, ptr @boundary, align 4
  %86 = call i32 @get_CDR_long(ptr noundef %81, ptr noundef %82, i1 noundef zeroext %84, i32 noundef %85)
  %87 = call ptr @proto_tree_add_int(ptr noundef %75, i32 noundef %76, ptr noundef %77, i32 noundef %80, i32 noundef 4, i32 noundef %86)
  %88 = load ptr, ptr %11, align 8
  %89 = load i32, ptr @hf_Tango_AttributeConfig_3_max_dim_y, align 4
  %90 = load ptr, ptr %9, align 8
  %91 = load ptr, ptr %13, align 8
  %92 = load i32, ptr %91, align 4
  %93 = sub i32 %92, 4
  %94 = load ptr, ptr %9, align 8
  %95 = load ptr, ptr %13, align 8
  %96 = load i8, ptr %16, align 1, !range !6, !noundef !7
  %97 = trunc i8 %96 to i1
  %98 = load i32, ptr @boundary, align 4
  %99 = call i32 @get_CDR_long(ptr noundef %94, ptr noundef %95, i1 noundef zeroext %97, i32 noundef %98)
  %100 = call ptr @proto_tree_add_int(ptr noundef %88, i32 noundef %89, ptr noundef %90, i32 noundef %93, i32 noundef 4, i32 noundef %99)
  %101 = load ptr, ptr %11, align 8
  %102 = load ptr, ptr %9, align 8
  %103 = load ptr, ptr %13, align 8
  %104 = load i8, ptr %16, align 1, !range !6, !noundef !7
  %105 = trunc i8 %104 to i1
  %106 = load i32, ptr @boundary, align 4
  %107 = load i32, ptr @hf_Tango_AttributeConfig_3_description, align 4
  call void @giop_add_CDR_string(ptr noundef %101, ptr noundef %102, ptr noundef %103, i1 noundef zeroext %105, i32 noundef %106, i32 noundef %107)
  %108 = load ptr, ptr %11, align 8
  %109 = load ptr, ptr %9, align 8
  %110 = load ptr, ptr %13, align 8
  %111 = load i8, ptr %16, align 1, !range !6, !noundef !7
  %112 = trunc i8 %111 to i1
  %113 = load i32, ptr @boundary, align 4
  %114 = load i32, ptr @hf_Tango_AttributeConfig_3_label, align 4
  call void @giop_add_CDR_string(ptr noundef %108, ptr noundef %109, ptr noundef %110, i1 noundef zeroext %112, i32 noundef %113, i32 noundef %114)
  %115 = load ptr, ptr %11, align 8
  %116 = load ptr, ptr %9, align 8
  %117 = load ptr, ptr %13, align 8
  %118 = load i8, ptr %16, align 1, !range !6, !noundef !7
  %119 = trunc i8 %118 to i1
  %120 = load i32, ptr @boundary, align 4
  %121 = load i32, ptr @hf_Tango_AttributeConfig_3_unit, align 4
  call void @giop_add_CDR_string(ptr noundef %115, ptr noundef %116, ptr noundef %117, i1 noundef zeroext %119, i32 noundef %120, i32 noundef %121)
  %122 = load ptr, ptr %11, align 8
  %123 = load ptr, ptr %9, align 8
  %124 = load ptr, ptr %13, align 8
  %125 = load i8, ptr %16, align 1, !range !6, !noundef !7
  %126 = trunc i8 %125 to i1
  %127 = load i32, ptr @boundary, align 4
  %128 = load i32, ptr @hf_Tango_AttributeConfig_3_standard_unit, align 4
  call void @giop_add_CDR_string(ptr noundef %122, ptr noundef %123, ptr noundef %124, i1 noundef zeroext %126, i32 noundef %127, i32 noundef %128)
  %129 = load ptr, ptr %11, align 8
  %130 = load ptr, ptr %9, align 8
  %131 = load ptr, ptr %13, align 8
  %132 = load i8, ptr %16, align 1, !range !6, !noundef !7
  %133 = trunc i8 %132 to i1
  %134 = load i32, ptr @boundary, align 4
  %135 = load i32, ptr @hf_Tango_AttributeConfig_3_display_unit, align 4
  call void @giop_add_CDR_string(ptr noundef %129, ptr noundef %130, ptr noundef %131, i1 noundef zeroext %133, i32 noundef %134, i32 noundef %135)
  %136 = load ptr, ptr %11, align 8
  %137 = load ptr, ptr %9, align 8
  %138 = load ptr, ptr %13, align 8
  %139 = load i8, ptr %16, align 1, !range !6, !noundef !7
  %140 = trunc i8 %139 to i1
  %141 = load i32, ptr @boundary, align 4
  %142 = load i32, ptr @hf_Tango_AttributeConfig_3_format, align 4
  call void @giop_add_CDR_string(ptr noundef %136, ptr noundef %137, ptr noundef %138, i1 noundef zeroext %140, i32 noundef %141, i32 noundef %142)
  %143 = load ptr, ptr %11, align 8
  %144 = load ptr, ptr %9, align 8
  %145 = load ptr, ptr %13, align 8
  %146 = load i8, ptr %16, align 1, !range !6, !noundef !7
  %147 = trunc i8 %146 to i1
  %148 = load i32, ptr @boundary, align 4
  %149 = load i32, ptr @hf_Tango_AttributeConfig_3_min_value, align 4
  call void @giop_add_CDR_string(ptr noundef %143, ptr noundef %144, ptr noundef %145, i1 noundef zeroext %147, i32 noundef %148, i32 noundef %149)
  %150 = load ptr, ptr %11, align 8
  %151 = load ptr, ptr %9, align 8
  %152 = load ptr, ptr %13, align 8
  %153 = load i8, ptr %16, align 1, !range !6, !noundef !7
  %154 = trunc i8 %153 to i1
  %155 = load i32, ptr @boundary, align 4
  %156 = load i32, ptr @hf_Tango_AttributeConfig_3_max_value, align 4
  call void @giop_add_CDR_string(ptr noundef %150, ptr noundef %151, ptr noundef %152, i1 noundef zeroext %154, i32 noundef %155, i32 noundef %156)
  %157 = load ptr, ptr %11, align 8
  %158 = load ptr, ptr %9, align 8
  %159 = load ptr, ptr %13, align 8
  %160 = load i8, ptr %16, align 1, !range !6, !noundef !7
  %161 = trunc i8 %160 to i1
  %162 = load i32, ptr @boundary, align 4
  %163 = load i32, ptr @hf_Tango_AttributeConfig_3_writable_attr_name, align 4
  call void @giop_add_CDR_string(ptr noundef %157, ptr noundef %158, ptr noundef %159, i1 noundef zeroext %161, i32 noundef %162, i32 noundef %163)
  %164 = load ptr, ptr %9, align 8
  %165 = load ptr, ptr %13, align 8
  %166 = load i8, ptr %16, align 1, !range !6, !noundef !7
  %167 = trunc i8 %166 to i1
  %168 = load i32, ptr @boundary, align 4
  %169 = call i32 @get_CDR_enum(ptr noundef %164, ptr noundef %165, i1 noundef zeroext %167, i32 noundef %168)
  store i32 %169, ptr %17, align 4
  %170 = load ptr, ptr %11, align 8
  %171 = load i32, ptr @hf_Tango_AttributeConfig_3_level, align 4
  %172 = load ptr, ptr %9, align 8
  %173 = load ptr, ptr %13, align 8
  %174 = load i32, ptr %173, align 4
  %175 = sub i32 %174, 4
  %176 = load i32, ptr %17, align 4
  %177 = call ptr @proto_tree_add_uint(ptr noundef %170, i32 noundef %171, ptr noundef %172, i32 noundef %175, i32 noundef 4, i32 noundef %176)
  call void @llvm.lifetime.start.p0(i64 8, ptr %22) #6
  %178 = load ptr, ptr %11, align 8
  %179 = load ptr, ptr %9, align 8
  %180 = load ptr, ptr %13, align 8
  %181 = load i32, ptr %180, align 4
  %182 = load i32, ptr @ett_giop_struct, align 4
  %183 = call ptr @proto_tree_add_subtree(ptr noundef %178, ptr noundef %179, i32 noundef %181, i32 noundef -1, i32 noundef %182, ptr noundef null, ptr noundef @.str.822)
  store ptr %183, ptr %22, align 8
  %184 = load ptr, ptr %9, align 8
  %185 = load ptr, ptr %10, align 8
  %186 = load ptr, ptr %22, align 8
  %187 = load ptr, ptr %12, align 8
  %188 = load ptr, ptr %13, align 8
  %189 = load ptr, ptr %14, align 8
  %190 = load ptr, ptr %15, align 8
  %191 = load i8, ptr %16, align 1, !range !6, !noundef !7
  %192 = trunc i8 %191 to i1
  call void @decode_Tango_AttributeAlarm_st(ptr noundef %184, ptr noundef %185, ptr noundef %186, ptr noundef %187, ptr noundef %188, ptr noundef %189, ptr noundef %190, i1 noundef zeroext %192)
  call void @llvm.lifetime.end.p0(i64 8, ptr %22) #6
  call void @llvm.lifetime.start.p0(i64 8, ptr %23) #6
  %193 = load ptr, ptr %11, align 8
  %194 = load ptr, ptr %9, align 8
  %195 = load ptr, ptr %13, align 8
  %196 = load i32, ptr %195, align 4
  %197 = load i32, ptr @ett_giop_struct, align 4
  %198 = call ptr @proto_tree_add_subtree(ptr noundef %193, ptr noundef %194, i32 noundef %196, i32 noundef -1, i32 noundef %197, ptr noundef null, ptr noundef @.str.823)
  store ptr %198, ptr %23, align 8
  %199 = load ptr, ptr %9, align 8
  %200 = load ptr, ptr %10, align 8
  %201 = load ptr, ptr %23, align 8
  %202 = load ptr, ptr %12, align 8
  %203 = load ptr, ptr %13, align 8
  %204 = load ptr, ptr %14, align 8
  %205 = load ptr, ptr %15, align 8
  %206 = load i8, ptr %16, align 1, !range !6, !noundef !7
  %207 = trunc i8 %206 to i1
  call void @decode_Tango_EventProperties_st(ptr noundef %199, ptr noundef %200, ptr noundef %201, ptr noundef %202, ptr noundef %203, ptr noundef %204, ptr noundef %205, i1 noundef zeroext %207)
  call void @llvm.lifetime.end.p0(i64 8, ptr %23) #6
  %208 = load ptr, ptr %9, align 8
  %209 = load ptr, ptr %13, align 8
  %210 = load i8, ptr %16, align 1, !range !6, !noundef !7
  %211 = trunc i8 %210 to i1
  %212 = load i32, ptr @boundary, align 4
  %213 = call i32 @get_CDR_ulong(ptr noundef %208, ptr noundef %209, i1 noundef zeroext %211, i32 noundef %212)
  store i32 %213, ptr %18, align 4
  %214 = load ptr, ptr %11, align 8
  %215 = load i32, ptr @hf_Tango_AttributeConfig_3_extensions_loop, align 4
  %216 = load ptr, ptr %9, align 8
  %217 = load ptr, ptr %13, align 8
  %218 = load i32, ptr %217, align 4
  %219 = sub i32 %218, 4
  %220 = load i32, ptr %18, align 4
  %221 = call ptr @proto_tree_add_uint(ptr noundef %214, i32 noundef %215, ptr noundef %216, i32 noundef %219, i32 noundef 4, i32 noundef %220)
  call void @llvm.lifetime.start.p0(i64 8, ptr %24) #6
  %222 = load ptr, ptr %11, align 8
  store ptr %222, ptr %24, align 8
  %223 = load ptr, ptr %11, align 8
  %224 = load ptr, ptr %9, align 8
  %225 = load ptr, ptr %13, align 8
  %226 = load i32, ptr %225, align 4
  %227 = load i32, ptr @ett_giop_sequence, align 4
  %228 = call ptr @proto_tree_add_subtree(ptr noundef %223, ptr noundef %224, i32 noundef %226, i32 noundef -1, i32 noundef %227, ptr noundef null, ptr noundef @.str.839)
  store ptr %228, ptr %11, align 8
  store i32 0, ptr %19, align 4
  br label %229

229:                                              ; preds = %241, %8
  %230 = load i32, ptr %19, align 4
  %231 = load i32, ptr %18, align 4
  %232 = icmp ult i32 %230, %231
  br i1 %232, label %233, label %244

233:                                              ; preds = %229
  %234 = load ptr, ptr %11, align 8
  %235 = load ptr, ptr %9, align 8
  %236 = load ptr, ptr %13, align 8
  %237 = load i8, ptr %16, align 1, !range !6, !noundef !7
  %238 = trunc i8 %237 to i1
  %239 = load i32, ptr @boundary, align 4
  %240 = load i32, ptr @hf_Tango_AttributeConfig_3_extensions, align 4
  call void @giop_add_CDR_string(ptr noundef %234, ptr noundef %235, ptr noundef %236, i1 noundef zeroext %238, i32 noundef %239, i32 noundef %240)
  br label %241

241:                                              ; preds = %233
  %242 = load i32, ptr %19, align 4
  %243 = add i32 %242, 1
  store i32 %243, ptr %19, align 4
  br label %229, !llvm.loop !85

244:                                              ; preds = %229
  %245 = load ptr, ptr %24, align 8
  store ptr %245, ptr %11, align 8
  call void @llvm.lifetime.end.p0(i64 8, ptr %24) #6
  %246 = load ptr, ptr %9, align 8
  %247 = load ptr, ptr %13, align 8
  %248 = load i8, ptr %16, align 1, !range !6, !noundef !7
  %249 = trunc i8 %248 to i1
  %250 = load i32, ptr @boundary, align 4
  %251 = call i32 @get_CDR_ulong(ptr noundef %246, ptr noundef %247, i1 noundef zeroext %249, i32 noundef %250)
  store i32 %251, ptr %20, align 4
  %252 = load ptr, ptr %11, align 8
  %253 = load i32, ptr @hf_Tango_AttributeConfig_3_sys_extensions_loop, align 4
  %254 = load ptr, ptr %9, align 8
  %255 = load ptr, ptr %13, align 8
  %256 = load i32, ptr %255, align 4
  %257 = sub i32 %256, 4
  %258 = load i32, ptr %20, align 4
  %259 = call ptr @proto_tree_add_uint(ptr noundef %252, i32 noundef %253, ptr noundef %254, i32 noundef %257, i32 noundef 4, i32 noundef %258)
  call void @llvm.lifetime.start.p0(i64 8, ptr %25) #6
  %260 = load ptr, ptr %11, align 8
  store ptr %260, ptr %25, align 8
  %261 = load ptr, ptr %11, align 8
  %262 = load ptr, ptr %9, align 8
  %263 = load ptr, ptr %13, align 8
  %264 = load i32, ptr %263, align 4
  %265 = load i32, ptr @ett_giop_sequence, align 4
  %266 = call ptr @proto_tree_add_subtree(ptr noundef %261, ptr noundef %262, i32 noundef %264, i32 noundef -1, i32 noundef %265, ptr noundef null, ptr noundef @.str.840)
  store ptr %266, ptr %11, align 8
  store i32 0, ptr %21, align 4
  br label %267

267:                                              ; preds = %279, %244
  %268 = load i32, ptr %21, align 4
  %269 = load i32, ptr %20, align 4
  %270 = icmp ult i32 %268, %269
  br i1 %270, label %271, label %282

271:                                              ; preds = %267
  %272 = load ptr, ptr %11, align 8
  %273 = load ptr, ptr %9, align 8
  %274 = load ptr, ptr %13, align 8
  %275 = load i8, ptr %16, align 1, !range !6, !noundef !7
  %276 = trunc i8 %275 to i1
  %277 = load i32, ptr @boundary, align 4
  %278 = load i32, ptr @hf_Tango_AttributeConfig_3_sys_extensions, align 4
  call void @giop_add_CDR_string(ptr noundef %272, ptr noundef %273, ptr noundef %274, i1 noundef zeroext %276, i32 noundef %277, i32 noundef %278)
  br label %279

279:                                              ; preds = %271
  %280 = load i32, ptr %21, align 4
  %281 = add i32 %280, 1
  store i32 %281, ptr %21, align 4
  br label %267, !llvm.loop !86

282:                                              ; preds = %267
  %283 = load ptr, ptr %25, align 8
  store ptr %283, ptr %11, align 8
  call void @llvm.lifetime.end.p0(i64 8, ptr %25) #6
  call void @llvm.lifetime.end.p0(i64 4, ptr %21) #6
  call void @llvm.lifetime.end.p0(i64 4, ptr %20) #6
  call void @llvm.lifetime.end.p0(i64 4, ptr %19) #6
  call void @llvm.lifetime.end.p0(i64 4, ptr %18) #6
  call void @llvm.lifetime.end.p0(i64 4, ptr %17) #6
  ret void
}