; Function Attrs: null_pointer_is_valid sspstrong uwtable
define internal fastcc void @decode_Tango_AttributeConfig_3_st(ptr noundef %0, ptr noundef %1, ptr noundef %2, i1 noundef zeroext %3) unnamed_addr #0 {
  %5 = load i32, ptr @hf_Tango_AttributeConfig_3_name, align 4
  tail call void @giop_add_CDR_string(ptr noundef %1, ptr noundef %0, ptr noundef %2, i1 noundef zeroext %3, i32 noundef 12, i32 noundef %5)
  %6 = tail call i32 @get_CDR_enum(ptr noundef %0, ptr noundef %2, i1 noundef zeroext %3, i32 noundef 12)
  %7 = load i32, ptr @hf_Tango_AttributeConfig_3_writable, align 4
  %8 = load i32, ptr %2, align 4
  %9 = add i32 %8, -4
  %10 = tail call ptr @proto_tree_add_uint(ptr noundef %1, i32 noundef %7, ptr noundef %0, i32 noundef %9, i32 noundef 4, i32 noundef %6)
  %11 = tail call i32 @get_CDR_enum(ptr noundef %0, ptr noundef %2, i1 noundef zeroext %3, i32 noundef 12)
  %12 = load i32, ptr @hf_Tango_AttributeConfig_3_data_format, align 4
  %13 = load i32, ptr %2, align 4
  %14 = add i32 %13, -4
  %15 = tail call ptr @proto_tree_add_uint(ptr noundef %1, i32 noundef %12, ptr noundef %0, i32 noundef %14, i32 noundef 4, i32 noundef %11)
  %16 = load i32, ptr @hf_Tango_AttributeConfig_3_data_type, align 4
  %17 = load i32, ptr %2, align 4
  %18 = add i32 %17, -4
  %19 = tail call i32 @get_CDR_long(ptr noundef %0, ptr noundef %2, i1 noundef zeroext %3, i32 noundef 12)
  %20 = tail call ptr @proto_tree_add_int(ptr noundef %1, i32 noundef %16, ptr noundef %0, i32 noundef %18, i32 noundef 4, i32 noundef %19)
  %21 = load i32, ptr @hf_Tango_AttributeConfig_3_max_dim_x, align 4
  %22 = load i32, ptr %2, align 4
  %23 = add i32 %22, -4
  %24 = tail call i32 @get_CDR_long(ptr noundef %0, ptr noundef %2, i1 noundef zeroext %3, i32 noundef 12)
  %25 = tail call ptr @proto_tree_add_int(ptr noundef %1, i32 noundef %21, ptr noundef %0, i32 noundef %23, i32 noundef 4, i32 noundef %24)
  %26 = load i32, ptr @hf_Tango_AttributeConfig_3_max_dim_y, align 4
  %27 = load i32, ptr %2, align 4
  %28 = add i32 %27, -4
  %29 = tail call i32 @get_CDR_long(ptr noundef %0, ptr noundef %2, i1 noundef zeroext %3, i32 noundef 12)
  %30 = tail call ptr @proto_tree_add_int(ptr noundef %1, i32 noundef %26, ptr noundef %0, i32 noundef %28, i32 noundef 4, i32 noundef %29)
  %31 = load i32, ptr @hf_Tango_AttributeConfig_3_description, align 4
  tail call void @giop_add_CDR_string(ptr noundef %1, ptr noundef %0, ptr noundef %2, i1 noundef zeroext %3, i32 noundef 12, i32 noundef %31)
  %32 = load i32, ptr @hf_Tango_AttributeConfig_3_label, align 4
  tail call void @giop_add_CDR_string(ptr noundef %1, ptr noundef %0, ptr noundef %2, i1 noundef zeroext %3, i32 noundef 12, i32 noundef %32)
  %33 = load i32, ptr @hf_Tango_AttributeConfig_3_unit, align 4
  tail call void @giop_add_CDR_string(ptr noundef %1, ptr noundef %0, ptr noundef %2, i1 noundef zeroext %3, i32 noundef 12, i32 noundef %33)
  %34 = load i32, ptr @hf_Tango_AttributeConfig_3_standard_unit, align 4
  tail call void @giop_add_CDR_string(ptr noundef %1, ptr noundef %0, ptr noundef %2, i1 noundef zeroext %3, i32 noundef 12, i32 noundef %34)
  %35 = load i32, ptr @hf_Tango_AttributeConfig_3_display_unit, align 4
  tail call void @giop_add_CDR_string(ptr noundef %1, ptr noundef %0, ptr noundef %2, i1 noundef zeroext %3, i32 noundef 12, i32 noundef %35)
  %36 = load i32, ptr @hf_Tango_AttributeConfig_3_format, align 4
  tail call void @giop_add_CDR_string(ptr noundef %1, ptr noundef %0, ptr noundef %2, i1 noundef zeroext %3, i32 noundef 12, i32 noundef %36)
  %37 = load i32, ptr @hf_Tango_AttributeConfig_3_min_value, align 4
  tail call void @giop_add_CDR_string(ptr noundef %1, ptr noundef %0, ptr noundef %2, i1 noundef zeroext %3, i32 noundef 12, i32 noundef %37)
  %38 = load i32, ptr @hf_Tango_AttributeConfig_3_max_value, align 4
  tail call void @giop_add_CDR_string(ptr noundef %1, ptr noundef %0, ptr noundef %2, i1 noundef zeroext %3, i32 noundef 12, i32 noundef %38)
  %39 = load i32, ptr @hf_Tango_AttributeConfig_3_writable_attr_name, align 4
  tail call void @giop_add_CDR_string(ptr noundef %1, ptr noundef %0, ptr noundef %2, i1 noundef zeroext %3, i32 noundef 12, i32 noundef %39)
  %40 = tail call i32 @get_CDR_enum(ptr noundef %0, ptr noundef %2, i1 noundef zeroext %3, i32 noundef 12)
  %41 = load i32, ptr @hf_Tango_AttributeConfig_3_level, align 4
  %42 = load i32, ptr %2, align 4
  %43 = add i32 %42, -4
  %44 = tail call ptr @proto_tree_add_uint(ptr noundef %1, i32 noundef %41, ptr noundef %0, i32 noundef %43, i32 noundef 4, i32 noundef %40)
  %45 = load i32, ptr %2, align 4
  %46 = load i32, ptr @ett_giop_struct, align 4
  %47 = tail call ptr @proto_tree_add_subtree(ptr noundef %1, ptr noundef %0, i32 noundef %45, i32 noundef -1, i32 noundef %46, ptr noundef null, ptr noundef nonnull @.str.822)
  tail call fastcc void @decode_Tango_AttributeAlarm_st(ptr noundef %0, ptr noundef %47, ptr noundef %2, i1 noundef zeroext %3)
  %48 = load i32, ptr %2, align 4
  %49 = load i32, ptr @ett_giop_struct, align 4
  %50 = tail call ptr @proto_tree_add_subtree(ptr noundef %1, ptr noundef %0, i32 noundef %48, i32 noundef -1, i32 noundef %49, ptr noundef null, ptr noundef nonnull @.str.823)
  tail call fastcc void @decode_Tango_EventProperties_st(ptr noundef %0, ptr noundef %50, ptr noundef %2, i1 noundef zeroext %3)
  %51 = tail call i32 @get_CDR_ulong(ptr noundef %0, ptr noundef %2, i1 noundef zeroext %3, i32 noundef 12)
  %52 = load i32, ptr @hf_Tango_AttributeConfig_3_extensions_loop, align 4
  %53 = load i32, ptr %2, align 4
  %54 = add i32 %53, -4
  %55 = tail call ptr @proto_tree_add_uint(ptr noundef %1, i32 noundef %52, ptr noundef %0, i32 noundef %54, i32 noundef 4, i32 noundef %51)
  %56 = load i32, ptr %2, align 4
  %57 = load i32, ptr @ett_giop_sequence, align 4
  %58 = tail call ptr @proto_tree_add_subtree(ptr noundef %1, ptr noundef %0, i32 noundef %56, i32 noundef -1, i32 noundef %57, ptr noundef null, ptr noundef nonnull @.str.839)
  %.not = icmp eq i32 %51, 0
  br i1 %.not, label %._crit_edge, label %.lr.ph

.lr.ph:                                           ; preds = %4, %.lr.ph
  %.01 = phi i32 [ %60, %.lr.ph ], [ 0, %4 ]
  %59 = load i32, ptr @hf_Tango_AttributeConfig_3_extensions, align 4
  tail call void @giop_add_CDR_string(ptr noundef %58, ptr noundef %0, ptr noundef %2, i1 noundef zeroext %3, i32 noundef 12, i32 noundef %59)
  %60 = add nuw i32 %.01, 1
  %exitcond.not = icmp eq i32 %60, %51
  br i1 %exitcond.not, label %._crit_edge, label %.lr.ph, !llvm.loop !100

._crit_edge:                                      ; preds = %.lr.ph, %4
  %61 = tail call i32 @get_CDR_ulong(ptr noundef %0, ptr noundef %2, i1 noundef zeroext %3, i32 noundef 12)
  %62 = load i32, ptr @hf_Tango_AttributeConfig_3_sys_extensions_loop, align 4
  %63 = load i32, ptr %2, align 4
  %64 = add i32 %63, -4
  %65 = tail call ptr @proto_tree_add_uint(ptr noundef %1, i32 noundef %62, ptr noundef %0, i32 noundef %64, i32 noundef 4, i32 noundef %61)
  %66 = load i32, ptr %2, align 4
  %67 = load i32, ptr @ett_giop_sequence, align 4
  %68 = tail call ptr @proto_tree_add_subtree(ptr noundef %1, ptr noundef %0, i32 noundef %66, i32 noundef -1, i32 noundef %67, ptr noundef null, ptr noundef nonnull @.str.840)
  %.not6 = icmp eq i32 %61, 0
  br i1 %.not6, label %._crit_edge5, label %.lr.ph4

.lr.ph4:                                          ; preds = %._crit_edge, %.lr.ph4
  %.01382 = phi i32 [ %70, %.lr.ph4 ], [ 0, %._crit_edge ]
  %69 = load i32, ptr @hf_Tango_AttributeConfig_3_sys_extensions, align 4
  tail call void @giop_add_CDR_string(ptr noundef %68, ptr noundef %0, ptr noundef %2, i1 noundef zeroext %3, i32 noundef 12, i32 noundef %69)
  %70 = add nuw i32 %.01382, 1
  %exitcond7.not = icmp eq i32 %70, %61
  br i1 %exitcond7.not, label %._crit_edge5, label %.lr.ph4, !llvm.loop !101

._crit_edge5:                                     ; preds = %.lr.ph4, %._crit_edge
  ret void
}